target datalayout = "e-m:e-p270:32:32-p271:32:32-p272:64:64-i64:64-i128:128-f80:128-n8:16:32:64-S128"
target triple = "x86_64-pc-linux-gnu"

%class.GrowableArrayBase = type { i32, i32 }

@_ZN11FileMapInfo25_non_existent_class_pathsE = hidden global ptr null, align 8

; Function Attrs: mustprogress nounwind uwtable
define linkonce_odr hidden noundef i32 @_ZNK17GrowableArrayBase6lengthEv(ptr noundef nonnull align 4 dereferenceable(8) %0) #1 comdat align 2 {
  %2 = alloca ptr, align 8
  store ptr %0, ptr %2, align 8
  %3 = load ptr, ptr %2, align 8
  %4 = getelementptr inbounds %class.GrowableArrayBase, ptr %3, i32 0, i32 0
  %5 = load i32, ptr %4, align 4
  ret i32 %5
}

; Function Attrs: mustprogress nounwind uwtable
define hidden noundef i32 @_ZN11FileMapInfo28num_non_existent_class_pathsEv() #1 align 2 {
  %1 = alloca i32, align 4
  %2 = load ptr, ptr @_ZN11FileMapInfo25_non_existent_class_pathsE, align 8
  %3 = icmp ne ptr %2, null
  br i1 %3, label %4, label %7

4:                                                ; preds = %0
  %5 = load ptr, ptr @_ZN11FileMapInfo25_non_existent_class_pathsE, align 8
  %6 = call noundef i32 @_ZNK17GrowableArrayBase6lengthEv(ptr noundef nonnull align 4 dereferenceable(8) %5)
  store i32 %6, ptr %1, align 4
  br label %8

7:                                                ; preds = %0
  store i32 0, ptr %1, align 4
  br label %8

8:                                                ; preds = %7, %4
  %9 = load i32, ptr %1, align 4
  ret i32 %9
}