; Function Attrs: mustprogress nofree norecurse nosync nounwind willreturn memory(read, inaccessiblemem: none) uwtable
define hidden noundef i32 @_ZN11FileMapInfo28num_non_existent_class_pathsEv() local_unnamed_addr #8 align 2 {
  %1 = load ptr, ptr @_ZN11FileMapInfo25_non_existent_class_pathsE, align 8
  %.not = icmp eq ptr %1, null
  br i1 %.not, label %4, label %2

2:                                                ; preds = %0
  %3 = load i32, ptr %1, align 4
  br label %4

4:                                                ; preds = %0, %2
  %.0 = phi i32 [ %3, %2 ], [ 0, %0 ]
  ret i32 %.0
}